(lp0
(lp1
F0.1
aF0.11747430249632893
aF0.1
aF0.23703022339027593
aF0.34319316688567675
aF0.810683311432326
aF0.8935611038107752
aa(lp2
F0.1
aF0.11747430249632893
aF0.15000000000000002
aF0.1860446780551906
aF0.24993429697766095
aF0.7971484888304862
aF0.8935611038107752
aa(lp3
F0.1
aF0.11747430249632893
aF0.2
aF0.16070959264126145
aF0.20461235216819978
aF0.6459921156373194
aF0.8935611038107752
aa(lp4
F0.1
aF0.11747430249632893
aF0.25
aF0.14709592641261504
aF0.15457293035479633
aF0.6194875164257556
aF0.8935611038107752
aa(lp5
F0.1
aF0.11747430249632893
aF0.30000000000000004
aF0.13591327201051243
aF0.13591327201051243
aF0.4404467805519054
aF0.8935611038107752
aa(lp6
F0.1
aF0.11747430249632893
aF0.35
aF0.12946123521681996
aF0.1525755584756899
aF0.42068331143232585
aF0.8935611038107752
aa(lp7
F0.1
aF0.11747430249632893
aF0.4
aF0.12554533508541388
aF0.12554533508541388
aF0.4188567674113009
aF0.8935611038107752
aa(lp8
F0.1
aF0.11747430249632893
aF0.45000000000000007
aF0.12118265440210253
aF0.12118265440210253
aF0.268449408672799
aF0.8935611038107752
aa(lp9
F0.1
aF0.11747430249632893
aF0.5
aF0.11737187910643897
aF0.1328777923784494
aF0.3590670170827858
aF0.8935611038107752
aa(lp10
F0.1
aF0.11747430249632893
aF0.55
aF0.1148751642575558
aF0.12266754270696455
aF0.25561103810775293
aF0.8935611038107752
aa(lp11
F0.1
aF0.11747430249632893
aF0.6
aF0.11356110381077524
aF0.11356110381077524
aF0.2390801576872536
aF0.8935611038107752
aa(lp12
F0.1
aF0.11747430249632893
aF0.65
aF0.11161629434954015
aF0.11161629434954015
aF0.19036793692509857
aF0.8935611038107752
aa(lp13
F0.1
aF0.11747430249632893
aF0.7000000000000001
aF0.11010512483574239
aF0.11010512483574239
aF0.18089356110381075
aF0.8935611038107752
aa(lp14
F0.1
aF0.11747430249632893
aF0.75
aF0.10914586070959258
aF0.10914586070959258
aF0.13278580814717472
aF0.8935611038107752
aa(lp15
F0.1
aF0.11747430249632893
aF0.8
aF0.10814717477003936
aF0.10814717477003936
aF0.11604467805519046
aF0.8935611038107752
aa(lp16
F0.1
aF0.11747430249632893
aF0.85
aF0.10742444152431012
aF0.10742444152431012
aF0.12321944809461233
aF0.8935611038107752
aa(lp17
F0.1
aF0.11747430249632893
aF0.9
aF0.10641261498028912
aF0.10641261498028912
aF0.11433639947437581
aF0.8935611038107752
aa(lp18
F0.15000000000000002
aF0.1907514450867052
aF0.1
aF0.290618932038835
aF0.37913834951456316
aF0.8138106796116505
aF0.8385922330097088
aa(lp19
F0.15000000000000002
aF0.1907514450867052
aF0.15000000000000002
aF0.2439077669902913
aF0.27387135922330097
aF0.7571359223300971
aF0.8385922330097088
aa(lp20
F0.15000000000000002
aF0.1907514450867052
aF0.2
aF0.22001213592233013
aF0.27013349514563106
aF0.7604611650485437
aF0.8385922330097088
aa(lp21
F0.15000000000000002
aF0.1907514450867052
aF0.25
aF0.20376213592233006
aF0.24200242718446605
aF0.6881310679611651
aF0.8385922330097088
aa(lp22
F0.15000000000000002
aF0.1907514450867052
aF0.30000000000000004
aF0.19483009708737858
aF0.22718446601941747
aF0.6024150485436893
aF0.8385922330097088
aa(lp23
F0.15000000000000002
aF0.1907514450867052
aF0.35
aF0.18830097087378636
aF0.2079733009708738
aF0.5540655339805826
aF0.8385922330097088
aa(lp24
F0.15000000000000002
aF0.1907514450867052
aF0.4
aF0.18279126213592234
aF0.20913834951456314
aF0.5910800970873786
aF0.8385922330097088
aa(lp25
F0.15000000000000002
aF0.1907514450867052
aF0.45000000000000007
aF0.17754854368932033
aF0.19064320388349518
aF0.5159708737864078
aF0.8385922330097088
aa(lp26
F0.15000000000000002
aF0.1907514450867052
aF0.5
aF0.17434466019417472
aF0.18768203883495144
aF0.5147694174757281
aF0.8385922330097088
aa(lp27
F0.15000000000000002
aF0.1907514450867052
aF0.55
aF0.17185679611650487
aF0.1786043689320388
aF0.4535436893203884
aF0.8385922330097088
aa(lp28
F0.15000000000000002
aF0.1907514450867052
aF0.6
aF0.16945388349514562
aF0.16945388349514562
aF0.3980339805825243
aF0.8385922330097088
aa(lp29
F0.15000000000000002
aF0.1907514450867052
aF0.65
aF0.16731796116504855
aF0.16731796116504855
aF0.47065533980582525
aF0.8385922330097088
aa(lp30
F0.15000000000000002
aF0.1907514450867052
aF0.7000000000000001
aF0.1658252427184466
aF0.1658252427184466
aF0.34839805825242715
aF0.8385922330097088
aa(lp31
F0.15000000000000002
aF0.1907514450867052
aF0.75
aF0.16455097087378645
aF0.16455097087378645
aF0.3068446601941747
aF0.8385922330097088
aa(lp32
F0.15000000000000002
aF0.1907514450867052
aF0.8
aF0.16320388349514564
aF0.16320388349514564
aF0.31246359223300973
aF0.8385922330097088
aa(lp33
F0.15000000000000002
aF0.1907514450867052
aF0.85
aF0.16212378640776703
aF0.16212378640776703
aF0.27095873786407765
aF0.8385922330097088
aa(lp34
F0.15000000000000002
aF0.1907514450867052
aF0.9
aF0.16165048543689325
aF0.16165048543689325
aF0.18881067961165054
aF0.8385922330097088
aa(lp35
F0.2
aF0.2485294117647059
aF0.1
aF0.32566548881036517
aF0.4450883392226148
aF0.783168433451119
aF0.7997644287396938
aa(lp36
F0.2
aF0.2485294117647059
aF0.15000000000000002
aF0.2840518256772674
aF0.3459128386336867
aF0.7090694935217904
aF0.7997644287396938
aa(lp37
F0.2
aF0.2485294117647059
aF0.2
aF0.2593875147232038
aF0.29752650176678447
aF0.7206595995288575
aF0.7997644287396938
aa(lp38
F0.2
aF0.2485294117647059
aF0.25
aF0.24533568904593642
aF0.25651354534746756
aF0.6688457008244995
aF0.7997644287396938
aa(lp39
F0.2
aF0.2485294117647059
aF0.30000000000000004
aF0.2357126030624264
aF0.24140164899882213
aF0.6550647820965841
aF0.7997644287396938
aa(lp40
F0.2
aF0.2485294117647059
aF0.35
aF0.2283627797408716
aF0.23994110718492342
aF0.6072320376914017
aF0.7997644287396938
aa(lp41
F0.2
aF0.2485294117647059
aF0.4
aF0.2232155477031802
aF0.23479387514723202
aF0.5944405182567727
aF0.7997644287396938
aa(lp42
F0.2
aF0.2485294117647059
aF0.45000000000000007
aF0.21930506478209658
aF0.23098939929328624
aF0.49361601884570083
aF0.7997644287396938
aa(lp43
F0.2
aF0.2485294117647059
aF0.5
aF0.2156419316843345
aF0.22153121319199057
aF0.514946996466431
aF0.7997644287396938
aa(lp44
F0.2
aF0.2485294117647059
aF0.55
aF0.21267373380447585
aF0.2186336866902238
aF0.513851590106007
aF0.7997644287396938
aa(lp45
F0.2
aF0.2485294117647059
aF0.6
aF0.20975265017667843
aF0.20975265017667843
aF0.4710600706713781
aF0.7997644287396938
aa(lp46
F0.2
aF0.2485294117647059
aF0.65
aF0.20790341578327443
aF0.21393404004711425
aF0.45779740871613667
aF0.7997644287396938
aa(lp47
F0.2
aF0.2485294117647059
aF0.7000000000000001
aF0.20613663133097762
aF0.20613663133097762
aF0.4091872791519434
aF0.7997644287396938
aa(lp48
F0.2
aF0.2485294117647059
aF0.75
aF0.20464075382803298
aF0.21062426383981153
aF0.3841696113074205
aF0.7997644287396938
aa(lp49
F0.2
aF0.2485294117647059
aF0.8
aF0.20305064782096582
aF0.20305064782096582
aF0.31101295641931687
aF0.7997644287396938
aa(lp50
F0.2
aF0.2485294117647059
aF0.85
aF0.20212014134275622
aF0.20212014134275622
aF0.26229681978798586
aF0.7997644287396938
aa(lp51
F0.2
aF0.2485294117647059
aF0.9
aF0.20082449941107186
aF0.20082449941107186
aF0.2369729093050648
aF0.7997644287396938
aa(lp52
F0.25
aF0.32819722650231126
aF0.1
aF0.6641067285382831
aF0.4369257540603248
aF0.7308584686774942
aF0.7517401392111369
aa(lp53
F0.25
aF0.32819722650231126
aF0.15000000000000002
aF0.5654408352668213
aF0.35522041763341067
aF0.6598723897911832
aF0.7517401392111369
aa(lp54
F0.25
aF0.32819722650231126
aF0.2
aF0.4750812064965197
aF0.34354988399071923
aF0.6639675174013921
aF0.7517401392111369
aa(lp55
F0.25
aF0.32819722650231126
aF0.25
aF0.4530742459396752
aF0.31437354988399074
aF0.6475174013921113
aF0.7517401392111369
aa(lp56
F0.25
aF0.32819722650231126
aF0.30000000000000004
aF0.38175174013921115
aF0.2921925754060325
aF0.6225754060324825
aF0.7517401392111369
aa(lp57
F0.25
aF0.32819722650231126
aF0.35
aF0.36634570765661256
aF0.30426914153132245
aF0.5822969837587006
aF0.7517401392111369
aa(lp58
F0.25
aF0.32819722650231126
aF0.4
aF0.3380974477958237
aF0.28519721577726215
aF0.5753480278422274
aF0.7517401392111369
aa(lp59
F0.25
aF0.32819722650231126
aF0.45000000000000007
aF0.3155568445475638
aF0.2718445475638051
aF0.5497331786542924
aF0.7517401392111369
aa(lp60
F0.25
aF0.32819722650231126
aF0.5
aF0.30735498839907194
aF0.2680278422273782
aF0.49909512761020886
aF0.7517401392111369
aa(lp61
F0.25
aF0.32819722650231126
aF0.55
aF0.2798027842227378
aF0.27008120649651973
aF0.5125406032482599
aF0.7517401392111369
aa(lp62
F0.25
aF0.32819722650231126
aF0.6
aF0.2631206496519722
aF0.2581786542923434
aF0.44680974477958235
aF0.7517401392111369
aa(lp63
F0.25
aF0.32819722650231126
aF0.65
aF0.26031322505800464
aF0.2553712296983759
aF0.4500580046403712
aF0.7517401392111369
aa(lp64
F0.25
aF0.32819722650231126
aF0.7000000000000001
aF0.254292343387471
aF0.254292343387471
aF0.42460556844547565
aF0.7517401392111369
aa(lp65
F0.25
aF0.32819722650231126
aF0.75
aF0.25722737819025526
aF0.25214617169373554
aF0.38792343387470996
aF0.7517401392111369
aa(lp66
F0.25
aF0.32819722650231126
aF0.8
aF0.25109048723897914
aF0.25109048723897914
aF0.37211136890951274
aF0.7517401392111369
aa(lp67
F0.25
aF0.32819722650231126
aF0.85
aF0.2501044083526682
aF0.2501044083526682
aF0.32584686774941996
aF0.7517401392111369
aa(lp68
F0.25
aF0.32819722650231126
aF0.9
aF0.24900232018561483
aF0.24900232018561483
aF0.2995939675174014
aF0.7517401392111369
aa(lp69
F0.30000000000000004
aF0.43657331136738053
aF0.1
aF0.5911467889908257
aF0.4501261467889908
aF0.6824197247706423
aF0.694954128440367
aa(lp70
F0.30000000000000004
aF0.43657331136738053
aF0.15000000000000002
aF0.5404357798165138
aF0.4160435779816513
aF0.6707224770642202
aF0.694954128440367
aa(lp71
F0.30000000000000004
aF0.43657331136738053
aF0.2
aF0.5163761467889908
aF0.37990825688073393
aF0.6415825688073394
aF0.694954128440367
aa(lp72
F0.30000000000000004
aF0.43657331136738053
aF0.25
aF0.46775229357798165
aF0.3638302752293578
aF0.6148853211009175
aF0.694954128440367
aa(lp73
F0.30000000000000004
aF0.43657331136738053
aF0.30000000000000004
aF0.4175
aF0.3595756880733945
aF0.5961009174311926
aF0.694954128440367
aa(lp74
F0.30000000000000004
aF0.43657331136738053
aF0.35
aF0.3975573394495413
aF0.3490252293577982
aF0.5825802752293577
aF0.694954128440367
aa(lp75
F0.30000000000000004
aF0.43657331136738053
aF0.4
aF0.3643807339449541
aF0.34222477064220186
aF0.5589334862385321
aF0.694954128440367
aa(lp76
F0.30000000000000004
aF0.43657331136738053
aF0.45000000000000007
aF0.3470412844036697
aF0.3245298165137615
aF0.5320756880733946
aF0.694954128440367
aa(lp77
F0.30000000000000004
aF0.43657331136738053
aF0.5
aF0.3482454128440367
aF0.3291284403669725
aF0.49254587155963303
aF0.694954128440367
aa(lp78
F0.30000000000000004
aF0.43657331136738053
aF0.55
aF0.32740825688073394
aF0.31590596330275234
aF0.4877752293577982
aF0.694954128440367
aa(lp79
F0.30000000000000004
aF0.43657331136738053
aF0.6
aF0.32051605504587155
aF0.3128096330275229
aF0.49350917431192665
aF0.694954128440367
aa(lp80
F0.30000000000000004
aF0.43657331136738053
aF0.65
aF0.31121559633027523
aF0.31121559633027523
aF0.43100917431192665
aF0.694954128440367
aa(lp81
F0.30000000000000004
aF0.43657331136738053
aF0.7000000000000001
aF0.3172591743119266
aF0.30946100917431196
aF0.4336582568807339
aF0.694954128440367
aa(lp82
F0.30000000000000004
aF0.43657331136738053
aF0.75
aF0.3088761467889908
aF0.3088761467889908
aF0.39860091743119264
aF0.694954128440367
aa(lp83
F0.30000000000000004
aF0.43657331136738053
aF0.8
aF0.3115825688073394
aF0.30766055045871554
aF0.38581422018348627
aF0.694954128440367
aa(lp84
F0.30000000000000004
aF0.43657331136738053
aF0.85
aF0.3067087155963303
aF0.3067087155963303
aF0.37716743119266055
aF0.694954128440367
aa(lp85
F0.30000000000000004
aF0.43657331136738053
aF0.9
aF0.30547018348623856
aF0.30547018348623856
aF0.34870412844036697
aF0.694954128440367
aa(lp86
F0.35
aF0.5646853146853147
aF0.1
aF0.5543128491620112
aF0.4844804469273743
aF0.6139329608938547
aF0.6139329608938547
aa(lp87
F0.35
aF0.5646853146853147
aF0.15000000000000002
aF0.5246368715083799
aF0.4345698324022346
aF0.6159441340782122
aF0.6379888268156425
aa(lp88
F0.35
aF0.5646853146853147
aF0.2
aF0.5143016759776536
aF0.4171731843575419
aF0.6065586592178771
aF0.6379888268156425
aa(lp89
F0.35
aF0.5646853146853147
aF0.25
aF0.447195530726257
aF0.4138547486033519
aF0.594905027932961
aF0.6379888268156425
aa(lp90
F0.35
aF0.5646853146853147
aF0.30000000000000004
aF0.47017877094972066
aF0.3929720670391062
aF0.5967597765363128
aF0.6379888268156425
aa(lp91
F0.35
aF0.5646853146853147
aF0.35
aF0.4128268156424581
aF0.39412290502793296
aF0.5595642458100558
aF0.6379888268156425
aa(lp92
F0.35
aF0.5646853146853147
aF0.4
aF0.41760893854748604
aF0.3796312849162011
aF0.5369608938547485
aF0.6379888268156425
aa(lp93
F0.35
aF0.5646853146853147
aF0.45000000000000007
aF0.40265921787709497
aF0.3811731843575419
aF0.5232513966480447
aF0.6379888268156425
aa(lp94
F0.35
aF0.5646853146853147
aF0.5
aF0.3869720670391062
aF0.38439106145251395
aF0.5030279329608939
aF0.6379888268156425
aa(lp95
F0.35
aF0.5646853146853147
aF0.55
aF0.38806703910614526
aF0.3769832402234637
aF0.46140782122905033
aF0.6379888268156425
aa(lp96
F0.35
aF0.5646853146853147
aF0.6
aF0.3737877094972067
aF0.36841340782122906
aF0.46924022346368716
aF0.6379888268156425
aa(lp97
F0.35
aF0.5646853146853147
aF0.65
aF0.36690502793296087
aF0.3751173184357542
aF0.4462122905027933
aF0.6379888268156425
aa(lp98
F0.35
aF0.5646853146853147
aF0.7000000000000001
aF0.3681899441340782
aF0.37094972067039106
aF0.43153072625698324
aF0.6379888268156425
aa(lp99
F0.35
aF0.5646853146853147
aF0.75
aF0.36449162011173186
aF0.36449162011173186
aF0.4199888268156424
aF0.6379888268156425
aa(lp100
F0.35
aF0.5646853146853147
aF0.8
aF0.3638994413407821
aF0.36946368715083794
aF0.4248156424581006
aF0.6379888268156425
aa(lp101
F0.35
aF0.5646853146853147
aF0.85
aF0.36312849162011174
aF0.36312849162011174
aF0.41329608938547485
aF0.6379888268156425
aa(lp102
F0.35
aF0.5646853146853147
aF0.9
aF0.36260335195530724
aF0.36260335195530724
aF0.37651396648044694
aF0.6379888268156425
aa(lp103
F0.4
aF0.674074074074074
aF0.1
aF0.5403650442477876
aF0.4853429203539823
aF0.5943473451327433
aF0.5943473451327433
aa(lp104
F0.4
aF0.674074074074074
aF0.15000000000000002
aF0.5153982300884956
aF0.4554867256637168
aF0.5821570796460177
aF0.5821570796460177
aa(lp105
F0.4
aF0.674074074074074
aF0.2
aF0.4921349557522124
aF0.4461836283185841
aF0.5782522123893805
aF0.5962389380530974
aa(lp106
F0.4
aF0.674074074074074
aF0.25
aF0.487820796460177
aF0.43717920353982304
aF0.5634845132743362
aF0.5962389380530974
aa(lp107
F0.4
aF0.674074074074074
aF0.30000000000000004
aF0.4639380530973451
aF0.43763274336283187
aF0.5511061946902654
aF0.5962389380530974
aa(lp108
F0.4
aF0.674074074074074
aF0.35
aF0.4432632743362832
aF0.4383185840707965
aF0.5323783185840708
aF0.5962389380530974
aa(lp109
F0.4
aF0.674074074074074
aF0.4
aF0.4442699115044248
aF0.42013274336283185
aF0.5254092920353982
aF0.5962389380530974
aa(lp110
F0.4
aF0.674074074074074
aF0.45000000000000007
aF0.4311061946902655
aF0.420254424778761
aF0.5357300884955752
aF0.5962389380530974
aa(lp111
F0.4
aF0.674074074074074
aF0.5
aF0.4246349557522124
aF0.415033185840708
aF0.49924778761061944
aF0.5962389380530974
aa(lp112
F0.4
aF0.674074074074074
aF0.55
aF0.42058628318584074
aF0.41879424778761065
aF0.4958407079646018
aF0.5962389380530974
aa(lp113
F0.4
aF0.674074074074074
aF0.6
aF0.40893805309734516
aF0.41265486725663714
aF0.4774557522123894
aF0.5962389380530974
aa(lp114
F0.4
aF0.674074074074074
aF0.65
aF0.4088716814159292
aF0.40897123893805315
aF0.45714601769911506
aF0.5962389380530974
aa(lp115
F0.4
aF0.674074074074074
aF0.7000000000000001
aF0.41076327433628324
aF0.406924778761062
aF0.45110619469026547
aF0.5962389380530974
aa(lp116
F0.4
aF0.674074074074074
aF0.75
aF0.4054092920353982
aF0.4054092920353982
aF0.455608407079646
aF0.5962389380530974
aa(lp117
F0.4
aF0.674074074074074
aF0.8
aF0.40497787610619473
aF0.40497787610619473
aF0.4513163716814159
aF0.5962389380530974
aa(lp118
F0.4
aF0.674074074074074
aF0.85
aF0.40472345132743365
aF0.40472345132743365
aF0.4396349557522124
aF0.5962389380530974
aa(lp119
F0.4
aF0.674074074074074
aF0.9
aF0.4062278761061947
aF0.4042367256637168
aF0.4218252212389381
aF0.5962389380530974
aa(lp120
F0.45000000000000007
aF0.7719298245614035
aF0.1
aF0.5372057205720572
aF0.4911441144114411
aF0.5608470847084709
aF0.4804400440044005
aa(lp121
F0.45000000000000007
aF0.7719298245614035
aF0.15000000000000002
aF0.5179207920792079
aF0.47622662266226623
aF0.5572937293729373
aF0.4776237623762376
aa(lp122
F0.45000000000000007
aF0.7719298245614035
aF0.2
aF0.509075907590759
aF0.47015401540154017
aF0.5463916391639164
aF0.5632563256325632
aa(lp123
F0.45000000000000007
aF0.7719298245614035
aF0.25
aF0.4911991199119912
aF0.4695049504950495
aF0.5463366336633664
aF0.5632563256325632
aa(lp124
F0.45000000000000007
aF0.7719298245614035
aF0.30000000000000004
aF0.4803190319031903
aF0.45801980198019804
aF0.5399229922992299
aF0.5632563256325632
aa(lp125
F0.45000000000000007
aF0.7719298245614035
aF0.35
aF0.468052805280528
aF0.4564136413641364
aF0.5292849284928492
aF0.5632563256325632
aa(lp126
F0.45000000000000007
aF0.7719298245614035
aF0.4
aF0.46359735973597355
aF0.4514521452145215
aF0.508965896589659
aF0.5632563256325632
aa(lp127
F0.45000000000000007
aF0.7719298245614035
aF0.45000000000000007
aF0.4578767876787678
aF0.45284928492849286
aF0.5051265126512651
aF0.5632563256325632
aa(lp128
F0.45000000000000007
aF0.7719298245614035
aF0.5
aF0.4482178217821782
aF0.4456325632563256
aF0.5033333333333333
aF0.5632563256325632
aa(lp129
F0.45000000000000007
aF0.7719298245614035
aF0.55
aF0.4469196919691969
aF0.44807480748074807
aF0.5038063806380638
aF0.5632563256325632
aa(lp130
F0.45000000000000007
aF0.7719298245614035
aF0.6
aF0.4428052805280528
aF0.44421342134213426
aF0.48210121012101215
aF0.5632563256325632
aa(lp131
F0.45000000000000007
aF0.7719298245614035
aF0.65
aF0.4425742574257426
aF0.4412761276127613
aF0.4895929592959296
aF0.5632563256325632
aa(lp132
F0.45000000000000007
aF0.7719298245614035
aF0.7000000000000001
aF0.43965896589658965
aF0.4409570957095709
aF0.48512651265126516
aF0.5632563256325632
aa(lp133
F0.45000000000000007
aF0.7719298245614035
aF0.75
aF0.43865786578657867
aF0.4399449944994499
aF0.4707480748074807
aF0.5632563256325632
aa(lp134
F0.45000000000000007
aF0.7719298245614035
aF0.8
aF0.4377337733773377
aF0.44027502750275027
aF0.46358635863586356
aF0.5632563256325632
aa(lp135
F0.45000000000000007
aF0.7719298245614035
aF0.85
aF0.4372387238723872
aF0.4372387238723872
aF0.46029702970297026
aF0.5632563256325632
aa(lp136
F0.45000000000000007
aF0.7719298245614035
aF0.9
aF0.43693069306930693
aF0.43693069306930693
aF0.45116611661166117
aF0.5632563256325632
aa(lp137
F0.5
aF0.98068669527897
aF0.1
aF0.5052437703141929
aF0.5057313109425786
aF0.5058721560130011
aF0.5048320693391116
aa(lp138
F0.5
aF0.98068669527897
aF0.15000000000000002
aF0.5024702058504875
aF0.5033586132177682
aF0.5056879739978332
aF0.5023618634886241
aa(lp139
F0.5
aF0.98068669527897
aF0.2
aF0.5015817984832069
aF0.5018743228602384
aF0.5046695557963163
aF0.5014409534127844
aa(lp140
F0.5
aF0.98068669527897
aF0.25
aF0.5005525460455038
aF0.5015817984832069
aF0.50534127843987
aF0.5005525460455038
aa(lp141
F0.5
aF0.98068669527897
aF0.30000000000000004
aF0.4987540628385699
aF0.49950162513542795
aF0.5044745395449621
aF0.4987540628385699
aa(lp142
F0.5
aF0.98068669527897
aF0.35
aF0.4991115926327194
aF0.499534127843987
aF0.5039544962080174
aF0.4991115926327194
aa(lp143
F0.5
aF0.98068669527897
aF0.4
aF0.49754062838569885
aF0.4980823401950163
aF0.5026543878656554
aF0.49754062838569885
aa(lp144
F0.5
aF0.98068669527897
aF0.45000000000000007
aF0.496522210184182
aF0.49719393282773566
aF0.5013434452871073
aF0.496522210184182
aa(lp145
F0.5
aF0.98068669527897
aF0.5
aF0.4966088840736728
aF0.49702058504875407
aF0.5009534127843986
aF0.4966088840736728
aa(lp146
F0.5
aF0.98068669527897
aF0.55
aF0.4959263271939328
aF0.4963705308775731
aF0.5010942578548212
aF0.4959263271939328
aa(lp147
F0.5
aF0.98068669527897
aF0.6
aF0.4950487540628386
aF0.4950487540628386
aF0.4992632719393283
aF0.4950487540628386
aa(lp148
F0.5
aF0.98068669527897
aF0.65
aF0.4950812567713976
aF0.49564463705308776
aF0.4996099674972914
aF0.4950812567713976
aa(lp149
F0.5
aF0.98068669527897
aF0.7000000000000001
aF0.49590465872156014
aF0.4962296858071506
aF0.49872156013001084
aF0.49590465872156014
aa(lp150
F0.5
aF0.98068669527897
aF0.75
aF0.49577464788732395
aF0.49577464788732395
aF0.4977573131094258
aF0.49577464788732395
aa(lp151
F0.5
aF0.98068669527897
aF0.8
aF0.4950487540628386
aF0.495092091007584
aF0.4975297941495125
aF0.4950487540628386
aa(lp152
F0.5
aF0.98068669527897
aF0.85
aF0.4956771397616468
aF0.4956771397616468
aF0.49750812567713976
aF0.5037919826652221
aa(lp153
F0.5
aF0.98068669527897
aF0.9
aF0.49513542795232934
aF0.49513542795232934
aF0.49626218851570963
aF0.5037919826652221
aa(lp154
F0.55
aF1.2355769230769231
aF0.1
aF0.512483870967742
aF0.5035698924731182
aF0.45252688172043015
aF0.5296236559139785
aa(lp155
F0.55
aF1.2355769230769231
aF0.15000000000000002
aF0.5335913978494624
aF0.5240322580645161
aF0.4559139784946237
aF0.5369462365591398
aa(lp156
F0.55
aF1.2355769230769231
aF0.2
aF0.5376559139784947
aF0.528483870967742
aF0.47011827956989244
aF0.5401612903225806
aa(lp157
F0.55
aF1.2355769230769231
aF0.25
aF0.5425376344086021
aF0.5313118279569893
aF0.47063440860215056
aF0.5425376344086021
aa(lp158
F0.55
aF1.2355769230769231
aF0.30000000000000004
aF0.5417204301075269
aF0.5350215053763441
aF0.47613978494623654
aF0.5436021505376344
aa(lp159
F0.55
aF1.2355769230769231
aF0.35
aF0.5453763440860215
aF0.5406989247311829
aF0.48073118279569893
aF0.5453763440860215
aa(lp160
F0.55
aF1.2355769230769231
aF0.4
aF0.5449139784946236
aF0.5400645161290323
aF0.48836559139784946
aF0.5449139784946236
aa(lp161
F0.55
aF1.2355769230769231
aF0.45000000000000007
aF0.5471397849462366
aF0.5413548387096774
aF0.49212903225806454
aF0.5471397849462366
aa(lp162
F0.55
aF1.2355769230769231
aF0.5
aF0.5483010752688172
aF0.545258064516129
aF0.5069139784946237
aF0.5483010752688172
aa(lp163
F0.55
aF1.2355769230769231
aF0.55
aF0.5486666666666666
aF0.5416559139784947
aF0.5100752688172043
aF0.5486666666666666
aa(lp164
F0.55
aF1.2355769230769231
aF0.6
aF0.5487741935483871
aF0.5477526881720429
aF0.5106344086021505
aF0.5487741935483871
aa(lp165
F0.55
aF1.2355769230769231
aF0.65
aF0.5487956989247311
aF0.547741935483871
aF0.5228709677419354
aF0.5487956989247311
aa(lp166
F0.55
aF1.2355769230769231
aF0.7000000000000001
aF0.5498924731182795
aF0.5469462365591398
aF0.5216666666666666
aF0.5498924731182795
aa(lp167
F0.55
aF1.2355769230769231
aF0.75
aF0.5505913978494623
aF0.5496129032258065
aF0.5244193548387096
aF0.5505913978494623
aa(lp168
F0.55
aF1.2355769230769231
aF0.8
aF0.5502795698924731
aF0.5482688172043011
aF0.5280430107526881
aF0.5502795698924731
aa(lp169
F0.55
aF1.2355769230769231
aF0.85
aF0.5514731182795699
aF0.5514731182795699
aF0.5372043010752688
aF0.5514731182795699
aa(lp170
F0.55
aF1.2355769230769231
aF0.9
aF0.5519462365591398
aF0.5519462365591398
aF0.546752688172043
aF0.5519462365591398
aa(lp171
F0.6
aF1.5471698113207548
aF0.1
aF0.40911111111111115
aF0.5231216931216931
aF0.4072063492063492
aF0.5651534391534391
aa(lp172
F0.6
aF1.5471698113207548
aF0.15000000000000002
aF0.41749206349206347
aF0.5442328042328042
aF0.40868783068783066
aF0.5798730158730159
aa(lp173
F0.6
aF1.5471698113207548
aF0.2
aF0.4402962962962963
aF0.5597460317460318
aF0.42433862433862435
aF0.5862857142857143
aa(lp174
F0.6
aF1.5471698113207548
aF0.25
aF0.44266666666666665
aF0.5664126984126984
aF0.4315026455026455
aF0.5900740740740741
aa(lp175
F0.6
aF1.5471698113207548
aF0.30000000000000004
aF0.4555767195767196
aF0.5711428571428572
aF0.46147089947089953
aF0.5926666666666666
aa(lp176
F0.6
aF1.5471698113207548
aF0.35
aF0.4782645502645502
aF0.5876402116402115
aF0.4548994708994709
aF0.5956402116402116
aa(lp177
F0.6
aF1.5471698113207548
aF0.4
aF0.484962962962963
aF0.5867619047619048
aF0.47365079365079366
aF0.596941798941799
aa(lp178
F0.6
aF1.5471698113207548
aF0.45000000000000007
aF0.48468783068783067
aF0.5889100529100529
aF0.48826455026455023
aF0.5990582010582011
aa(lp179
F0.6
aF1.5471698113207548
aF0.5
aF0.5051322751322752
aF0.5914708994708995
aF0.48234920634920636
aF0.5994285714285714
aa(lp180
F0.6
aF1.5471698113207548
aF0.55
aF0.493957671957672
aF0.5888042328042328
aF0.5228253968253969
aF0.6013439153439153
aa(lp181
F0.6
aF1.5471698113207548
aF0.6
aF0.5284656084656084
aF0.5926243386243386
aF0.5035978835978836
aF0.6008677248677248
aa(lp182
F0.6
aF1.5471698113207548
aF0.65
aF0.532
aF0.5986243386243387
aF0.5342222222222223
aF0.6026878306878306
aa(lp183
F0.6
aF1.5471698113207548
aF0.7000000000000001
aF0.5509206349206349
aF0.597047619047619
aF0.5345291005291005
aF0.6033439153439153
aa(lp184
F0.6
aF1.5471698113207548
aF0.75
aF0.5531322751322751
aF0.6032910052910053
aF0.5366349206349207
aF0.6032910052910053
aa(lp185
F0.6
aF1.5471698113207548
aF0.8
aF0.5669735449735449
aF0.605037037037037
aF0.5398730158730158
aF0.605037037037037
aa(lp186
F0.6
aF1.5471698113207548
aF0.85
aF0.5651746031746032
aF0.603089947089947
aF0.5798941798941799
aF0.6052698412698413
aa(lp187
F0.6
aF1.5471698113207548
aF0.9
aF0.5764021164021165
aF0.6059576719576719
aF0.5868359788359788
aF0.6059576719576719
aa(lp188
F0.65
aF1.8731117824773413
aF0.1
aF0.3861934805467928
aF0.5124290220820189
aF0.3707255520504732
aF0.583217665615142
aa(lp189
F0.65
aF1.8731117824773413
aF0.15000000000000002
aF0.3824710830704522
aF0.5655310199789695
aF0.3776235541535226
aF0.6041324921135647
aa(lp190
F0.65
aF1.8731117824773413
aF0.2
aF0.3973186119873817
aF0.5750262881177708
aF0.40298633017875923
aF0.6147739221871714
aa(lp191
F0.65
aF1.8731117824773413
aF0.25
aF0.42321766561514196
aF0.586267087276551
aF0.39850683491062044
aF0.6222187171398528
aa(lp192
F0.65
aF1.8731117824773413
aF0.30000000000000004
aF0.4550893796004206
aF0.5939852786540484
aF0.43289169295478447
aF0.6272555205047319
aa(lp193
F0.65
aF1.8731117824773413
aF0.35
aF0.46298633017875923
aF0.6127444794952681
aF0.4486750788643533
aF0.6323028391167191
aa(lp194
F0.65
aF1.8731117824773413
aF0.4
aF0.469726603575184
aF0.6208727655099895
aF0.47182965299684543
aF0.6352891692954785
aa(lp195
F0.65
aF1.8731117824773413
aF0.45000000000000007
aF0.49962145110410094
aF0.6289589905362776
aF0.5054048370136698
aF0.6377287066246057
aa(lp196
F0.65
aF1.8731117824773413
aF0.5
aF0.48888538380651947
aF0.6359305993690851
aF0.502944269190326
aF0.6387802313354364
aa(lp197
F0.65
aF1.8731117824773413
aF0.55
aF0.5098002103049422
aF0.6296319663512092
aF0.5302523659305993
aF0.6411461619348054
aa(lp198
F0.65
aF1.8731117824773413
aF0.6
aF0.5458885383806519
aF0.6303259726603576
aF0.550956887486856
aF0.6420820189274448
aa(lp199
F0.65
aF1.8731117824773413
aF0.65
aF0.5408832807570978
aF0.6349526813880125
aF0.540788643533123
aF0.6438906414300736
aa(lp200
F0.65
aF1.8731117824773413
aF0.7000000000000001
aF0.5715247108307046
aF0.6399158780231334
aF0.5776550998948475
aF0.6457939011566771
aa(lp201
F0.65
aF1.8731117824773413
aF0.75
aF0.5812723449001052
aF0.6434805467928497
aF0.5754048370136698
aF0.6464668769716088
aa(lp202
F0.65
aF1.8731117824773413
aF0.8
aF0.5641640378548896
aF0.6415772870662461
aF0.5998002103049421
aF0.647465825446898
aa(lp203
F0.65
aF1.8731117824773413
aF0.85
aF0.6007991587802314
aF0.6427970557308096
aF0.6098002103049421
aF0.6487592008412199
aa(lp204
F0.65
aF1.8731117824773413
aF0.9
aF0.6016614090431126
aF0.6496740273396424
aF0.619695057833859
aF0.6496740273396424
aa(lp205
F0.7000000000000001
aF2.397163120567376
aF0.1
aF0.333152400835073
aF0.501356993736952
aF0.32032359081419626
aF0.6068162839248433
aa(lp206
F0.7000000000000001
aF2.397163120567376
aF0.15000000000000002
aF0.33278705636743217
aF0.5530480167014613
aF0.34646137787056364
aF0.6352713987473904
aa(lp207
F0.7000000000000001
aF2.397163120567376
aF0.2
aF0.3416597077244259
aF0.5856471816283925
aF0.3667432150313153
aF0.6490814196242171
aa(lp208
F0.7000000000000001
aF2.397163120567376
aF0.25
aF0.38670146137787054
aF0.6346346555323591
aF0.3686847599164927
aF0.6601356993736953
aa(lp209
F0.7000000000000001
aF2.397163120567376
aF0.30000000000000004
aF0.415062630480167
aF0.6575052192066806
aF0.39322546972860123
aF0.6686638830897703
aa(lp210
F0.7000000000000001
aF2.397163120567376
aF0.35
aF0.4277035490605428
aF0.6499582463465554
aF0.3974947807933194
aF0.6727453027139875
aa(lp211
F0.7000000000000001
aF2.397163120567376
aF0.4
aF0.44132567849686843
aF0.6487787056367432
aF0.4838413361169102
aF0.6796033402922755
aa(lp212
F0.7000000000000001
aF2.397163120567376
aF0.45000000000000007
aF0.4973068893528183
aF0.6627766179540711
aF0.45462421711899786
aF0.6820668058455116
aa(lp213
F0.7000000000000001
aF2.397163120567376
aF0.5
aF0.4674739039665971
aF0.6703131524008351
aF0.49855949895615864
aF0.6857306889352819
aa(lp214
F0.7000000000000001
aF2.397163120567376
aF0.55
aF0.4883820459290188
aF0.6690187891440502
aF0.5001565762004175
aF0.6886325678496868
aa(lp215
F0.7000000000000001
aF2.397163120567376
aF0.6
aF0.5329645093945721
aF0.6826931106471816
aF0.5564822546972861
aF0.6905219206680584
aa(lp216
F0.7000000000000001
aF2.397163120567376
aF0.65
aF0.5463256784968684
aF0.68160751565762
aF0.5306471816283925
aF0.6934446764091857
aa(lp217
F0.7000000000000001
aF2.397163120567376
aF0.7000000000000001
aF0.5871920668058455
aF0.6790605427974947
aF0.5716388308977035
aF0.6950417536534447
aa(lp218
F0.7000000000000001
aF2.397163120567376
aF0.75
aF0.5695511482254697
aF0.6857828810020877
aF0.6056576200417537
aF0.6979018789144049
aa(lp219
F0.7000000000000001
aF2.397163120567376
aF0.8
aF0.6316910229645095
aF0.6922860125260961
aF0.619749478079332
aF0.7003549060542799
aa(lp220
F0.7000000000000001
aF2.397163120567376
aF0.85
aF0.6403340292275574
aF0.6970041753653445
aF0.6361064718162839
aF0.701043841336117
aa(lp221
F0.7000000000000001
aF2.397163120567376
aF0.9
aF0.6619519832985385
aF0.6984864300626304
aF0.6579123173277661
aF0.7025782881002087
aa(lp222
F0.75
aF3.0251046025104604
aF0.1
aF0.2801455301455301
aF0.5388773388773389
aF0.26917879417879415
aF0.6367151767151767
aa(lp223
F0.75
aF3.0251046025104604
aF0.15000000000000002
aF0.2962162162162162
aF0.5846881496881497
aF0.28400207900207897
aF0.6734199584199584
aa(lp224
F0.75
aF3.0251046025104604
aF0.2
aF0.35024948024948027
aF0.6283471933471934
aF0.30221413721413726
aF0.6898336798336798
aa(lp225
F0.75
aF3.0251046025104604
aF0.25
aF0.3719334719334719
aF0.6401559251559251
aF0.32669438669438666
aF0.7030665280665281
aa(lp226
F0.75
aF3.0251046025104604
aF0.30000000000000004
aF0.34596673596673594
aF0.6779106029106029
aF0.3322972972972973
aF0.7104261954261955
aa(lp227
F0.75
aF3.0251046025104604
aF0.35
aF0.3852390852390853
aF0.6884095634095634
aF0.3801871101871102
aF0.7165280665280664
aa(lp228
F0.75
aF3.0251046025104604
aF0.4
aF0.47692307692307695
aF0.7093659043659044
aF0.43981288981288985
aF0.7236174636174636
aa(lp229
F0.75
aF3.0251046025104604
aF0.45000000000000007
aF0.4745530145530145
aF0.6943970893970894
aF0.4413305613305613
aF0.7278274428274429
aa(lp230
F0.75
aF3.0251046025104604
aF0.5
aF0.5247193347193347
aF0.7076299376299376
aF0.4857900207900208
aF0.7314137214137214
aa(lp231
F0.75
aF3.0251046025104604
aF0.55
aF0.525977130977131
aF0.7002598752598752
aF0.5015176715176716
aF0.7343659043659044
aa(lp232
F0.75
aF3.0251046025104604
aF0.6
aF0.5275051975051975
aF0.7274428274428274
aF0.5085239085239085
aF0.7371933471933473
aa(lp233
F0.75
aF3.0251046025104604
aF0.65
aF0.5388357588357588
aF0.7199792099792099
aF0.5445010395010395
aF0.7395530145530146
aa(lp234
F0.75
aF3.0251046025104604
aF0.7000000000000001
aF0.5450727650727651
aF0.7313617463617463
aF0.5597193347193348
aF0.7413097713097713
aa(lp235
F0.75
aF3.0251046025104604
aF0.75
aF0.5951455301455301
aF0.7185343035343036
aF0.6200727650727651
aF0.743045738045738
aa(lp236
F0.75
aF3.0251046025104604
aF0.8
aF0.6365384615384616
aF0.7402390852390852
aF0.6364656964656964
aF0.7451975051975052
aa(lp237
F0.75
aF3.0251046025104604
aF0.85
aF0.637941787941788
aF0.7371205821205822
aF0.6578170478170478
aF0.7470790020790021
aa(lp238
F0.75
aF3.0251046025104604
aF0.9
aF0.6788773388773388
aF0.7437006237006237
aF0.7038877338877338
aF0.7487214137214137
aa(lp239
F0.8
aF4.176470588235294
aF0.1
aF0.24088842975206612
aF0.528698347107438
aF0.2037603305785124
aF0.6601549586776859
aa(lp240
F0.8
aF4.176470588235294
aF0.15000000000000002
aF0.3013119834710744
aF0.6025826446280991
aF0.2196694214876033
aF0.7041632231404958
aa(lp241
F0.8
aF4.176470588235294
aF0.2
aF0.3333161157024793
aF0.6196487603305785
aF0.2478099173553719
aF0.7262809917355372
aa(lp242
F0.8
aF4.176470588235294
aF0.25
aF0.348254132231405
aF0.6874896694214876
aF0.3033987603305785
aF0.742210743801653
aa(lp243
F0.8
aF4.176470588235294
aF0.30000000000000004
aF0.33429752066115703
aF0.6983367768595041
aF0.32892561983471075
aF0.7542561983471074
aa(lp244
F0.8
aF4.176470588235294
aF0.35
aF0.3760743801652892
aF0.7056611570247933
aF0.37668388429752064
aF0.7622623966942149
aa(lp245
F0.8
aF4.176470588235294
aF0.4
aF0.3835847107438017
aF0.6994214876033058
aF0.3950929752066116
aF0.7683471074380165
aa(lp246
F0.8
aF4.176470588235294
aF0.45000000000000007
aF0.43207644628099173
aF0.728646694214876
aF0.43292355371900826
aF0.7749690082644628
aa(lp247
F0.8
aF4.176470588235294
aF0.5
aF0.5101239669421488
aF0.7735330578512396
aF0.4755371900826446
aF0.7793078512396694
aa(lp248
F0.8
aF4.176470588235294
aF0.55
aF0.4883367768595041
aF0.7530578512396695
aF0.4762913223140496
aF0.7824173553719008
aa(lp249
F0.8
aF4.176470588235294
aF0.6
aF0.5797520661157025
aF0.7633471074380165
aF0.579090909090909
aF0.7870661157024793
aa(lp250
F0.8
aF4.176470588235294
aF0.65
aF0.528595041322314
aF0.7907954545454545
aF0.6477582644628099
aF0.7907954545454545
aa(lp251
F0.8
aF4.176470588235294
aF0.7000000000000001
aF0.6549586776859504
aF0.7804545454545455
aF0.6310847107438017
aF0.7924586776859505
aa(lp252
F0.8
aF4.176470588235294
aF0.75
aF0.6514979338842974
aF0.78375
aF0.6637190082644628
aF0.7957541322314049
aa(lp253
F0.8
aF4.176470588235294
aF0.8
aF0.616539256198347
aF0.7854028925619835
aF0.6285330578512397
aF0.7974896694214876
aa(lp254
F0.8
aF4.176470588235294
aF0.85
aF0.7522933884297521
aF0.7826033057851239
aF0.7279235537190083
aF0.8006818181818182
aa(lp255
F0.8
aF4.176470588235294
aF0.9
aF0.7540392561983471
aF0.7965082644628099
aF0.7296797520661158
aF0.8025929752066115
aa(lp256
F0.85
aF6.028776978417266
aF0.1
aF0.20179119754350053
aF0.4620777891504606
aF0.17007164790174
aF0.6738178096212897
aa(lp257
F0.85
aF6.028776978417266
aF0.15000000000000002
aF0.21912998976458548
aF0.5964585465711362
aF0.16671443193449334
aF0.7233060388945752
aa(lp258
F0.85
aF6.028776978417266
aF0.2
aF0.2952712384851587
aF0.6597338792221085
aF0.1796315250767656
aF0.7504196519959058
aa(lp259
F0.85
aF6.028776978417266
aF0.25
aF0.3123643807574207
aF0.6385056294779938
aF0.2003480040941658
aF0.7697441146366427
aa(lp260
F0.85
aF6.028776978417266
aF0.30000000000000004
aF0.39939611054247703
aF0.7199897645854657
aF0.252589559877175
aF0.7836131013306039
aa(lp261
F0.85
aF6.028776978417266
aF0.35
aF0.3717809621289662
aF0.7485670419651996
aF0.29385875127942684
aF0.7938792221084954
aa(lp262
F0.85
aF6.028776978417266
aF0.4
aF0.3938689866939611
aF0.7640327533265098
aF0.3419447287615149
aF0.8037154554759468
aa(lp263
F0.85
aF6.028776978417266
aF0.45000000000000007
aF0.4444114636642784
aF0.7710951893551689
aF0.3701330603889458
aF0.810992835209826
aa(lp264
F0.85
aF6.028776978417266
aF0.5
aF0.5076663254861822
aF0.7973080859774822
aF0.4734288638689867
aF0.8175025588536337
aa(lp265
F0.85
aF6.028776978417266
aF0.55
aF0.4903991811668373
aF0.795742067553736
aF0.49749232343909927
aF0.8228147389969294
aa(lp266
F0.85
aF6.028776978417266
aF0.6
aF0.595813715455476
aF0.7874718526100307
aF0.4999181166837257
aF0.8284339815762538
aa(lp267
F0.85
aF6.028776978417266
aF0.65
aF0.6330501535312181
aF0.8194165813715456
aF0.612302968270215
aF0.8331627430910952
aa(lp268
F0.85
aF6.028776978417266
aF0.7000000000000001
aF0.6571852610030705
aF0.824145342886387
aF0.6228454452405322
aF0.8380757420675536
aa(lp269
F0.85
aF6.028776978417266
aF0.75
aF0.7017297850562948
aF0.8339611054247696
aF0.6596212896622313
aF0.8409518935516889
aa(lp270
F0.85
aF6.028776978417266
aF0.8
aF0.7399488229273286
aF0.8309007164790173
aF0.7399283520982599
aF0.8449846468781985
aa(lp271
F0.85
aF6.028776978417266
aF0.85
aF0.7284851586489253
aF0.8339815762538383
aF0.7146468781985671
aF0.8480245649948823
aa(lp272
F0.85
aF6.028776978417266
aF0.9
aF0.7808085977482089
aF0.851596724667349
aF0.7667144319344934
aF0.851596724667349
aa(lp273
F0.9
aF10.564705882352941
aF0.1
aF0.17258392675483214
aF0.5239877924720243
aF0.0876297049847406
aF0.6931129196337742
aa(lp274
F0.9
aF10.564705882352941
aF0.15000000000000002
aF0.16720244150559513
aF0.6177822990844354
aF0.10753814852492372
aF0.7499491353001018
aa(lp275
F0.9
aF10.564705882352941
aF0.2
aF0.1987385554425229
aF0.6518311291963378
aF0.11552390640895219
aF0.783204476093591
aa(lp276
F0.9
aF10.564705882352941
aF0.25
aF0.238087487283825
aF0.6903255340793489
aF0.1882197355035605
aF0.804913530010173
aa(lp277
F0.9
aF10.564705882352941
aF0.30000000000000004
aF0.22692777212614446
aF0.718880976602238
aF0.21275686673448627
aF0.8213123092573754
aa(lp278
F0.9
aF10.564705882352941
aF0.35
aF0.38606307222787384
aF0.7825127161749746
aF0.2596744659206511
aF0.8349440488301119
aa(lp279
F0.9
aF10.564705882352941
aF0.4
aF0.36775178026449645
aF0.769379450661241
aF0.3082400813835198
aF0.8453204476093592
aa(lp280
F0.9
aF10.564705882352941
aF0.45000000000000007
aF0.432970498474059
aF0.794292980671414
aF0.3796948118006104
aF0.8556459816887081
aa(lp281
F0.9
aF10.564705882352941
aF0.5
aF0.5534079348931842
aF0.8176500508646999
aF0.40602238046795525
aF0.8640793489318412
aa(lp282
F0.9
aF10.564705882352941
aF0.55
aF0.5019633774160732
aF0.8460427263479146
aF0.4556663275686674
aF0.8693489318413022
aa(lp283
F0.9
aF10.564705882352941
aF0.6
aF0.5376805696846388
aF0.8450661241098678
aF0.5375178026449644
aF0.8768056968463885
aa(lp284
F0.9
aF10.564705882352941
aF0.65
aF0.6519023397761954
aF0.843031536113937
aF0.5805798575788403
aF0.8827873855544252
aa(lp285
F0.9
aF10.564705882352941
aF0.7000000000000001
aF0.6233265513733469
aF0.8629908443540184
aF0.6397253306205494
aF0.886998982706002
aa(lp286
F0.9
aF10.564705882352941
aF0.75
aF0.643296032553408
aF0.8770396744659207
aF0.6356256358087488
aF0.8930417090539166
aa(lp287
F0.9
aF10.564705882352941
aF0.8
aF0.7271719226856561
aF0.8722787385554426
aF0.6862665310274669
aF0.8966225839267549
aa(lp288
F0.9
aF10.564705882352941
aF0.85
aF0.722410986775178
aF0.9012105798575788
aF0.7874669379450662
aF0.9012105798575788
aa(lp289
F0.9
aF10.564705882352941
aF0.9
aF0.8402136317395726
aF0.9056358087487284
aF0.7830620549338759
aF0.9056358087487284
aa.