(lp0
(lp1
F0.1
aF0.11747430249632893
aF0.1
aF-500.62
aF-419.83
aF-64.07
aF-1.0
aa(lp2
F0.1
aF0.11747430249632893
aF0.15000000000000002
aF-539.42
aF-490.8
aF-74.37
aF-1.0
aa(lp3
F0.1
aF0.11747430249632893
aF0.2
aF-558.7
aF-525.29
aF-189.4
aF-1.0
aa(lp4
F0.1
aF0.11747430249632893
aF0.25
aF-569.06
aF-563.37
aF-209.57
aF-1.0
aa(lp5
F0.1
aF0.11747430249632893
aF0.30000000000000004
aF-577.57
aF-577.57
aF-345.82
aF-1.0
aa(lp6
F0.1
aF0.11747430249632893
aF0.35
aF-582.48
aF-564.89
aF-360.86
aF-1.0
aa(lp7
F0.1
aF0.11747430249632893
aF0.4
aF-585.46
aF-585.46
aF-362.25
aF-1.0
aa(lp8
F0.1
aF0.11747430249632893
aF0.45000000000000007
aF-588.78
aF-588.78
aF-476.71
aF-1.0
aa(lp9
F0.1
aF0.11747430249632893
aF0.5
aF-591.68
aF-579.88
aF-407.75
aF-1.0
aa(lp10
F0.1
aF0.11747430249632893
aF0.55
aF-593.58
aF-587.65
aF-486.48
aF-1.0
aa(lp11
F0.1
aF0.11747430249632893
aF0.6
aF-594.58
aF-594.58
aF-499.06
aF-1.0
aa(lp12
F0.1
aF0.11747430249632893
aF0.65
aF-596.06
aF-596.06
aF-536.13
aF-1.0
aa(lp13
F0.1
aF0.11747430249632893
aF0.7000000000000001
aF-597.21
aF-597.21
aF-543.34
aF-1.0
aa(lp14
F0.1
aF0.11747430249632893
aF0.75
aF-597.94
aF-597.94
aF-579.95
aF-1.0
aa(lp15
F0.1
aF0.11747430249632893
aF0.8
aF-598.7
aF-598.7
aF-592.69
aF-1.0
aa(lp16
F0.1
aF0.11747430249632893
aF0.85
aF-599.25
aF-599.25
aF-587.23
aF-1.0
aa(lp17
F0.1
aF0.11747430249632893
aF0.9
aF-600.02
aF-600.02
aF-593.99
aF-1.0
aa(lp18
F0.15000000000000002
aF0.1907514450867052
aF0.1
aF-452.53
aF-379.59
aF-21.42
aF-1.0
aa(lp19
F0.15000000000000002
aF0.1907514450867052
aF0.15000000000000002
aF-491.02
aF-466.33
aF-68.12
aF-1.0
aa(lp20
F0.15000000000000002
aF0.1907514450867052
aF0.2
aF-510.71
aF-469.41
aF-65.38
aF-1.0
aa(lp21
F0.15000000000000002
aF0.1907514450867052
aF0.25
aF-524.1
aF-492.59
aF-124.98
aF-1.0
aa(lp22
F0.15000000000000002
aF0.1907514450867052
aF0.30000000000000004
aF-531.46
aF-504.8
aF-195.61
aF-1.0
aa(lp23
F0.15000000000000002
aF0.1907514450867052
aF0.35
aF-536.84
aF-520.63
aF-235.45
aF-1.0
aa(lp24
F0.15000000000000002
aF0.1907514450867052
aF0.4
aF-541.38
aF-519.67
aF-204.95
aF-1.0
aa(lp25
F0.15000000000000002
aF0.1907514450867052
aF0.45000000000000007
aF-545.7
aF-534.91
aF-266.84
aF-1.0
aa(lp26
F0.15000000000000002
aF0.1907514450867052
aF0.5
aF-548.34
aF-537.35
aF-267.83
aF-1.0
aa(lp27
F0.15000000000000002
aF0.1907514450867052
aF0.55
aF-550.39
aF-544.83
aF-318.28
aF-1.0
aa(lp28
F0.15000000000000002
aF0.1907514450867052
aF0.6
aF-552.37
aF-552.37
aF-364.02
aF-1.0
aa(lp29
F0.15000000000000002
aF0.1907514450867052
aF0.65
aF-554.13
aF-554.13
aF-304.18
aF-1.0
aa(lp30
F0.15000000000000002
aF0.1907514450867052
aF0.7000000000000001
aF-555.36
aF-555.36
aF-404.92
aF-1.0
aa(lp31
F0.15000000000000002
aF0.1907514450867052
aF0.75
aF-556.41
aF-556.41
aF-439.16
aF-1.0
aa(lp32
F0.15000000000000002
aF0.1907514450867052
aF0.8
aF-557.52
aF-557.52
aF-434.53
aF-1.0
aa(lp33
F0.15000000000000002
aF0.1907514450867052
aF0.85
aF-558.41
aF-558.41
aF-468.73
aF-1.0
aa(lp34
F0.15000000000000002
aF0.1907514450867052
aF0.9
aF-558.8
aF-558.8
aF-536.42
aF-1.0
aa(lp35
F0.2
aF0.2485294117647059
aF0.1
aF-403.51
aF-302.12
aF-15.09
aF-1.0
aa(lp36
F0.2
aF0.2485294117647059
aF0.15000000000000002
aF-438.84
aF-386.32
aF-78.0
aF-1.0
aa(lp37
F0.2
aF0.2485294117647059
aF0.2
aF-459.78
aF-427.4
aF-68.16
aF-1.0
aa(lp38
F0.2
aF0.2485294117647059
aF0.25
aF-471.71
aF-462.22
aF-112.15
aF-1.0
aa(lp39
F0.2
aF0.2485294117647059
aF0.30000000000000004
aF-479.88
aF-475.05
aF-123.85
aF-1.0
aa(lp40
F0.2
aF0.2485294117647059
aF0.35
aF-486.12
aF-476.29
aF-164.46
aF-1.0
aa(lp41
F0.2
aF0.2485294117647059
aF0.4
aF-490.49
aF-480.66
aF-175.32
aF-1.0
aa(lp42
F0.2
aF0.2485294117647059
aF0.45000000000000007
aF-493.81
aF-483.89
aF-260.92
aF-1.0
aa(lp43
F0.2
aF0.2485294117647059
aF0.5
aF-496.92
aF-491.92
aF-242.81
aF-1.0
aa(lp44
F0.2
aF0.2485294117647059
aF0.55
aF-499.44
aF-494.38
aF-243.74
aF-1.0
aa(lp45
F0.2
aF0.2485294117647059
aF0.6
aF-501.92
aF-501.92
aF-280.07
aF-1.0
aa(lp46
F0.2
aF0.2485294117647059
aF0.65
aF-503.49
aF-498.37
aF-291.33
aF-1.0
aa(lp47
F0.2
aF0.2485294117647059
aF0.7000000000000001
aF-504.99
aF-504.99
aF-332.6
aF-1.0
aa(lp48
F0.2
aF0.2485294117647059
aF0.75
aF-506.26
aF-501.18
aF-353.84
aF-1.0
aa(lp49
F0.2
aF0.2485294117647059
aF0.8
aF-507.61
aF-507.61
aF-415.95
aF-1.0
aa(lp50
F0.2
aF0.2485294117647059
aF0.85
aF-508.4
aF-508.4
aF-457.31
aF-1.0
aa(lp51
F0.2
aF0.2485294117647059
aF0.9
aF-509.5
aF-509.5
aF-478.81
aF-1.0
aa(lp52
F0.25
aF0.32819722650231126
aF0.1
aF-76.54
aF-272.37
aF-19.0
aF-1.0
aa(lp53
F0.25
aF0.32819722650231126
aF0.15000000000000002
aF-161.59
aF-342.8
aF-80.19
aF-1.0
aa(lp54
F0.25
aF0.32819722650231126
aF0.2
aF-239.48
aF-352.86
aF-76.66
aF-1.0
aa(lp55
F0.25
aF0.32819722650231126
aF0.25
aF-258.45
aF-378.01
aF-90.84
aF-1.0
aa(lp56
F0.25
aF0.32819722650231126
aF0.30000000000000004
aF-319.93
aF-397.13
aF-112.34
aF-1.0
aa(lp57
F0.25
aF0.32819722650231126
aF0.35
aF-333.21
aF-386.72
aF-147.06
aF-1.0
aa(lp58
F0.25
aF0.32819722650231126
aF0.4
aF-357.56
aF-403.16
aF-153.05
aF-1.0
aa(lp59
F0.25
aF0.32819722650231126
aF0.45000000000000007
aF-376.99
aF-414.67
aF-175.13
aF-1.0
aa(lp60
F0.25
aF0.32819722650231126
aF0.5
aF-384.06
aF-417.96
aF-218.78
aF-1.0
aa(lp61
F0.25
aF0.32819722650231126
aF0.55
aF-407.81
aF-416.19
aF-207.19
aF-1.0
aa(lp62
F0.25
aF0.32819722650231126
aF0.6
aF-422.19
aF-426.45
aF-263.85
aF-1.0
aa(lp63
F0.25
aF0.32819722650231126
aF0.65
aF-424.61
aF-428.87
aF-261.05
aF-1.0
aa(lp64
F0.25
aF0.32819722650231126
aF0.7000000000000001
aF-429.8
aF-429.8
aF-282.99
aF-1.0
aa(lp65
F0.25
aF0.32819722650231126
aF0.75
aF-427.27
aF-431.65
aF-314.61
aF-1.0
aa(lp66
F0.25
aF0.32819722650231126
aF0.8
aF-432.56
aF-432.56
aF-328.24
aF-1.0
aa(lp67
F0.25
aF0.32819722650231126
aF0.85
aF-433.41
aF-433.41
aF-368.12
aF-1.0
aa(lp68
F0.25
aF0.32819722650231126
aF0.9
aF-434.36
aF-434.36
aF-390.75
aF-1.0
aa(lp69
F0.30000000000000004
aF0.43657331136738053
aF0.1
aF-91.52
aF-214.49
aF-11.93
aF-1.0
aa(lp70
F0.30000000000000004
aF0.43657331136738053
aF0.15000000000000002
aF-135.74
aF-244.21
aF-22.13
aF-1.0
aa(lp71
F0.30000000000000004
aF0.43657331136738053
aF0.2
aF-156.72
aF-275.72
aF-47.54
aF-1.0
aa(lp72
F0.30000000000000004
aF0.43657331136738053
aF0.25
aF-199.12
aF-289.74
aF-70.82
aF-1.0
aa(lp73
F0.30000000000000004
aF0.43657331136738053
aF0.30000000000000004
aF-242.94
aF-293.45
aF-87.2
aF-1.0
aa(lp74
F0.30000000000000004
aF0.43657331136738053
aF0.35
aF-260.33
aF-302.65
aF-98.99
aF-1.0
aa(lp75
F0.30000000000000004
aF0.43657331136738053
aF0.4
aF-289.26
aF-308.58
aF-119.61
aF-1.0
aa(lp76
F0.30000000000000004
aF0.43657331136738053
aF0.45000000000000007
aF-304.38
aF-324.01
aF-143.03
aF-1.0
aa(lp77
F0.30000000000000004
aF0.43657331136738053
aF0.5
aF-303.33
aF-320.0
aF-177.5
aF-1.0
aa(lp78
F0.30000000000000004
aF0.43657331136738053
aF0.55
aF-321.5
aF-331.53
aF-181.66
aF-1.0
aa(lp79
F0.30000000000000004
aF0.43657331136738053
aF0.6
aF-327.51
aF-334.23
aF-176.66
aF-1.0
aa(lp80
F0.30000000000000004
aF0.43657331136738053
aF0.65
aF-335.62
aF-335.62
aF-231.16
aF-1.0
aa(lp81
F0.30000000000000004
aF0.43657331136738053
aF0.7000000000000001
aF-330.35
aF-337.15
aF-228.85
aF-1.0
aa(lp82
F0.30000000000000004
aF0.43657331136738053
aF0.75
aF-337.66
aF-337.66
aF-259.42
aF-1.0
aa(lp83
F0.30000000000000004
aF0.43657331136738053
aF0.8
aF-335.3
aF-338.72
aF-270.57
aF-1.0
aa(lp84
F0.30000000000000004
aF0.43657331136738053
aF0.85
aF-339.55
aF-339.55
aF-278.11
aF-1.0
aa(lp85
F0.30000000000000004
aF0.43657331136738053
aF0.9
aF-340.63
aF-340.63
aF-302.93
aF-1.0
aa(lp86
F0.35
aF0.5646853146853147
aF0.1
aF-75.89
aF-138.39
aF-22.53
aF-22.53
aa(lp87
F0.35
aF0.5646853146853147
aF0.15000000000000002
aF-102.45
aF-183.06
aF-20.73
aF-1.0
aa(lp88
F0.35
aF0.5646853146853147
aF0.2
aF-111.7
aF-198.63
aF-29.13
aF-1.0
aa(lp89
F0.35
aF0.5646853146853147
aF0.25
aF-171.76
aF-201.6
aF-39.56
aF-1.0
aa(lp90
F0.35
aF0.5646853146853147
aF0.30000000000000004
aF-151.19
aF-220.29
aF-37.9
aF-1.0
aa(lp91
F0.35
aF0.5646853146853147
aF0.35
aF-202.52
aF-219.26
aF-71.19
aF-1.0
aa(lp92
F0.35
aF0.5646853146853147
aF0.4
aF-198.24
aF-232.23
aF-91.42
aF-1.0
aa(lp93
F0.35
aF0.5646853146853147
aF0.45000000000000007
aF-211.62
aF-230.85
aF-103.69
aF-1.0
aa(lp94
F0.35
aF0.5646853146853147
aF0.5
aF-225.66
aF-227.97
aF-121.79
aF-1.0
aa(lp95
F0.35
aF0.5646853146853147
aF0.55
aF-224.68
aF-234.6
aF-159.04
aF-1.0
aa(lp96
F0.35
aF0.5646853146853147
aF0.6
aF-237.46
aF-242.27
aF-152.03
aF-1.0
aa(lp97
F0.35
aF0.5646853146853147
aF0.65
aF-243.62
aF-236.27
aF-172.64
aF-1.0
aa(lp98
F0.35
aF0.5646853146853147
aF0.7000000000000001
aF-242.47
aF-240.0
aF-185.78
aF-1.0
aa(lp99
F0.35
aF0.5646853146853147
aF0.75
aF-245.78
aF-245.78
aF-196.11
aF-1.0
aa(lp100
F0.35
aF0.5646853146853147
aF0.8
aF-246.31
aF-241.33
aF-191.79
aF-1.0
aa(lp101
F0.35
aF0.5646853146853147
aF0.85
aF-247.0
aF-247.0
aF-202.1
aF-1.0
aa(lp102
F0.35
aF0.5646853146853147
aF0.9
aF-247.47
aF-247.47
aF-235.02
aF-1.0
aa(lp103
F0.4
aF0.674074074074074
aF0.1
aF-51.51
aF-101.25
aF-2.71
aF-2.71
aa(lp104
F0.4
aF0.674074074074074
aF0.15000000000000002
aF-74.08
aF-128.24
aF-13.73
aF-13.73
aa(lp105
F0.4
aF0.674074074074074
aF0.2
aF-95.11
aF-136.65
aF-17.26
aF-1.0
aa(lp106
F0.4
aF0.674074074074074
aF0.25
aF-99.01
aF-144.79
aF-30.61
aF-1.0
aa(lp107
F0.4
aF0.674074074074074
aF0.30000000000000004
aF-120.6
aF-144.38
aF-41.8
aF-1.0
aa(lp108
F0.4
aF0.674074074074074
aF0.35
aF-139.29
aF-143.76
aF-58.73
aF-1.0
aa(lp109
F0.4
aF0.674074074074074
aF0.4
aF-138.38
aF-160.2
aF-65.03
aF-1.0
aa(lp110
F0.4
aF0.674074074074074
aF0.45000000000000007
aF-150.28
aF-160.09
aF-55.7
aF-1.0
aa(lp111
F0.4
aF0.674074074074074
aF0.5
aF-156.13
aF-164.81
aF-88.68
aF-1.0
aa(lp112
F0.4
aF0.674074074074074
aF0.55
aF-159.79
aF-161.41
aF-91.76
aF-1.0
aa(lp113
F0.4
aF0.674074074074074
aF0.6
aF-170.32
aF-166.96
aF-108.38
aF-1.0
aa(lp114
F0.4
aF0.674074074074074
aF0.65
aF-170.38
aF-170.29
aF-126.74
aF-1.0
aa(lp115
F0.4
aF0.674074074074074
aF0.7000000000000001
aF-168.67
aF-172.14
aF-132.2
aF-1.0
aa(lp116
F0.4
aF0.674074074074074
aF0.75
aF-173.51
aF-173.51
aF-128.13
aF-1.0
aa(lp117
F0.4
aF0.674074074074074
aF0.8
aF-173.9
aF-173.9
aF-132.01
aF-1.0
aa(lp118
F0.4
aF0.674074074074074
aF0.85
aF-174.13
aF-174.13
aF-142.57
aF-1.0
aa(lp119
F0.4
aF0.674074074074074
aF0.9
aF-172.77
aF-174.57
aF-158.67
aF-1.0
aa(lp120
F0.45000000000000007
aF0.7719298245614035
aF0.1
aF-24.68
aF-66.55
aF-3.19
aF-76.28
aa(lp121
F0.45000000000000007
aF0.7719298245614035
aF0.15000000000000002
aF-42.21
aF-80.11
aF-6.42
aF-78.84
aa(lp122
F0.45000000000000007
aF0.7719298245614035
aF0.2
aF-50.25
aF-85.63
aF-16.33
aF-1.0
aa(lp123
F0.45000000000000007
aF0.7719298245614035
aF0.25
aF-66.5
aF-86.22
aF-16.38
aF-1.0
aa(lp124
F0.45000000000000007
aF0.7719298245614035
aF0.30000000000000004
aF-76.39
aF-96.66
aF-22.21
aF-1.0
aa(lp125
F0.45000000000000007
aF0.7719298245614035
aF0.35
aF-87.54
aF-98.12
aF-31.88
aF-1.0
aa(lp126
F0.45000000000000007
aF0.7719298245614035
aF0.4
aF-91.59
aF-102.63
aF-50.35
aF-1.0
aa(lp127
F0.45000000000000007
aF0.7719298245614035
aF0.45000000000000007
aF-96.79
aF-101.36
aF-53.84
aF-1.0
aa(lp128
F0.45000000000000007
aF0.7719298245614035
aF0.5
aF-105.57
aF-107.92
aF-55.47
aF-1.0
aa(lp129
F0.45000000000000007
aF0.7719298245614035
aF0.55
aF-106.75
aF-105.7
aF-55.04
aF-1.0
aa(lp130
F0.45000000000000007
aF0.7719298245614035
aF0.6
aF-110.49
aF-109.21
aF-74.77
aF-1.0
aa(lp131
F0.45000000000000007
aF0.7719298245614035
aF0.65
aF-110.7
aF-111.88
aF-67.96
aF-1.0
aa(lp132
F0.45000000000000007
aF0.7719298245614035
aF0.7000000000000001
aF-113.35
aF-112.17
aF-72.02
aF-1.0
aa(lp133
F0.45000000000000007
aF0.7719298245614035
aF0.75
aF-114.26
aF-113.09
aF-85.09
aF-1.0
aa(lp134
F0.45000000000000007
aF0.7719298245614035
aF0.8
aF-115.1
aF-112.79
aF-91.6
aF-1.0
aa(lp135
F0.45000000000000007
aF0.7719298245614035
aF0.85
aF-115.55
aF-115.55
aF-94.59
aF-1.0
aa(lp136
F0.45000000000000007
aF0.7719298245614035
aF0.9
aF-115.83
aF-115.83
aF-102.89
aF-1.0
aa(lp137
F0.5
aF0.98068669527897
aF0.1
aF0.34
aF0.79
aF0.92
aF-0.04
aa(lp138
F0.5
aF0.98068669527897
aF0.15000000000000002
aF-2.22
aF-1.4
aF0.75
aF-2.32
aa(lp139
F0.5
aF0.98068669527897
aF0.2
aF-3.04
aF-2.77
aF-0.19
aF-3.17
aa(lp140
F0.5
aF0.98068669527897
aF0.25
aF-3.99
aF-3.04
aF0.43
aF-3.99
aa(lp141
F0.5
aF0.98068669527897
aF0.30000000000000004
aF-5.65
aF-4.96
aF-0.37
aF-5.65
aa(lp142
F0.5
aF0.98068669527897
aF0.35
aF-5.32
aF-4.93
aF-0.85
aF-5.32
aa(lp143
F0.5
aF0.98068669527897
aF0.4
aF-6.77
aF-6.27
aF-2.05
aF-6.77
aa(lp144
F0.5
aF0.98068669527897
aF0.45000000000000007
aF-7.71
aF-7.09
aF-3.26
aF-7.71
aa(lp145
F0.5
aF0.98068669527897
aF0.5
aF-7.63
aF-7.25
aF-3.62
aF-7.63
aa(lp146
F0.5
aF0.98068669527897
aF0.55
aF-8.26
aF-7.85
aF-3.49
aF-8.26
aa(lp147
F0.5
aF0.98068669527897
aF0.6
aF-9.07
aF-9.07
aF-5.18
aF-9.07
aa(lp148
F0.5
aF0.98068669527897
aF0.65
aF-9.04
aF-8.52
aF-4.86
aF-9.04
aa(lp149
F0.5
aF0.98068669527897
aF0.7000000000000001
aF-8.28
aF-7.98
aF-5.68
aF-8.28
aa(lp150
F0.5
aF0.98068669527897
aF0.75
aF-8.4
aF-8.4
aF-6.57
aF-8.4
aa(lp151
F0.5
aF0.98068669527897
aF0.8
aF-9.07
aF-9.03
aF-6.78
aF-9.07
aa(lp152
F0.5
aF0.98068669527897
aF0.85
aF-8.49
aF-8.49
aF-6.8
aF-1.0
aa(lp153
F0.5
aF0.98068669527897
aF0.9
aF-8.99
aF-8.99
aF-7.95
aF-1.0
aa(lp154
F0.55
aF1.2355769230769231
aF0.1
aF60.61
aF52.32
aF4.85
aF76.55
aa(lp155
F0.55
aF1.2355769230769231
aF0.15000000000000002
aF80.24
aF71.35
aF8.0
aF83.36
aa(lp156
F0.55
aF1.2355769230769231
aF0.2
aF84.02
aF75.49
aF21.21
aF86.35
aa(lp157
F0.55
aF1.2355769230769231
aF0.25
aF88.56
aF78.12
aF21.69
aF88.56
aa(lp158
F0.55
aF1.2355769230769231
aF0.30000000000000004
aF87.8
aF81.57
aF26.81
aF89.55
aa(lp159
F0.55
aF1.2355769230769231
aF0.35
aF91.2
aF86.85
aF31.08
aF91.2
aa(lp160
F0.55
aF1.2355769230769231
aF0.4
aF90.77
aF86.26
aF38.18
aF90.77
aa(lp161
F0.55
aF1.2355769230769231
aF0.45000000000000007
aF92.84
aF87.46
aF41.68
aF92.84
aa(lp162
F0.55
aF1.2355769230769231
aF0.5
aF93.92
aF91.09
aF55.43
aF93.92
aa(lp163
F0.55
aF1.2355769230769231
aF0.55
aF94.26
aF87.74
aF58.37
aF94.26
aa(lp164
F0.55
aF1.2355769230769231
aF0.6
aF94.36
aF93.41
aF58.89
aF94.36
aa(lp165
F0.55
aF1.2355769230769231
aF0.65
aF94.38
aF93.4
aF70.27
aF94.38
aa(lp166
F0.55
aF1.2355769230769231
aF0.7000000000000001
aF95.4
aF92.66
aF69.15
aF95.4
aa(lp167
F0.55
aF1.2355769230769231
aF0.75
aF96.05
aF95.14
aF71.71
aF96.05
aa(lp168
F0.55
aF1.2355769230769231
aF0.8
aF95.76
aF93.89
aF75.08
aF95.76
aa(lp169
F0.55
aF1.2355769230769231
aF0.85
aF96.87
aF96.87
aF83.6
aF96.87
aa(lp170
F0.55
aF1.2355769230769231
aF0.9
aF97.31
aF97.31
aF92.48
aF97.31
aa(lp171
F0.6
aF1.5471698113207548
aF0.1
aF15.61
aF123.35
aF13.81
aF163.07
aa(lp172
F0.6
aF1.5471698113207548
aF0.15000000000000002
aF23.53
aF143.3
aF15.21
aF176.98
aa(lp173
F0.6
aF1.5471698113207548
aF0.2
aF45.08
aF157.96
aF30.0
aF183.04
aa(lp174
F0.6
aF1.5471698113207548
aF0.25
aF47.32
aF164.26
aF36.77
aF186.62
aa(lp175
F0.6
aF1.5471698113207548
aF0.30000000000000004
aF59.52
aF168.73
aF65.09
aF189.07
aa(lp176
F0.6
aF1.5471698113207548
aF0.35
aF80.96
aF184.32
aF58.88
aF191.88
aa(lp177
F0.6
aF1.5471698113207548
aF0.4
aF87.29
aF183.49
aF76.6
aF193.11
aa(lp178
F0.6
aF1.5471698113207548
aF0.45000000000000007
aF87.03
aF185.52
aF90.41
aF195.11
aa(lp179
F0.6
aF1.5471698113207548
aF0.5
aF106.35
aF187.94
aF84.82
aF195.46
aa(lp180
F0.6
aF1.5471698113207548
aF0.55
aF95.79
aF185.42
aF123.07
aF197.27
aa(lp181
F0.6
aF1.5471698113207548
aF0.6
aF128.4
aF189.03
aF104.9
aF196.82
aa(lp182
F0.6
aF1.5471698113207548
aF0.65
aF131.74
aF194.7
aF133.84
aF198.54
aa(lp183
F0.6
aF1.5471698113207548
aF0.7000000000000001
aF149.62
aF193.21
aF134.13
aF199.16
aa(lp184
F0.6
aF1.5471698113207548
aF0.75
aF151.71
aF199.11
aF136.12
aF199.11
aa(lp185
F0.6
aF1.5471698113207548
aF0.8
aF164.79
aF200.76
aF139.18
aF200.76
aa(lp186
F0.6
aF1.5471698113207548
aF0.85
aF163.09
aF198.92
aF177.0
aF200.98
aa(lp187
F0.6
aF1.5471698113207548
aF0.9
aF173.7
aF201.63
aF183.56
aF201.63
aa(lp188
F0.65
aF1.8731117824773413
aF0.1
aF36.27
aF156.32
aF21.56
aF223.64
aa(lp189
F0.65
aF1.8731117824773413
aF0.15000000000000002
aF32.73
aF206.82
aF28.12
aF243.53
aa(lp190
F0.65
aF1.8731117824773413
aF0.2
aF46.85
aF215.85
aF52.24
aF253.65
aa(lp191
F0.65
aF1.8731117824773413
aF0.25
aF71.48
aF226.54
aF47.98
aF260.73
aa(lp192
F0.65
aF1.8731117824773413
aF0.30000000000000004
aF101.79
aF233.88
aF80.68
aF265.52
aa(lp193
F0.65
aF1.8731117824773413
aF0.35
aF109.3
aF251.72
aF95.69
aF270.32
aa(lp194
F0.65
aF1.8731117824773413
aF0.4
aF115.71
aF259.45
aF117.71
aF273.16
aa(lp195
F0.65
aF1.8731117824773413
aF0.45000000000000007
aF144.14
aF267.14
aF149.64
aF275.48
aa(lp196
F0.65
aF1.8731117824773413
aF0.5
aF133.93
aF273.77
aF147.3
aF276.48
aa(lp197
F0.65
aF1.8731117824773413
aF0.55
aF153.82
aF267.78
aF173.27
aF278.73
aa(lp198
F0.65
aF1.8731117824773413
aF0.6
aF188.14
aF268.44
aF192.96
aF279.62
aa(lp199
F0.65
aF1.8731117824773413
aF0.65
aF183.38
aF272.84
aF183.29
aF281.34
aa(lp200
F0.65
aF1.8731117824773413
aF0.7000000000000001
aF212.52
aF277.56
aF218.35
aF283.15
aa(lp201
F0.65
aF1.8731117824773413
aF0.75
aF221.79
aF280.95
aF216.21
aF283.79
aa(lp202
F0.65
aF1.8731117824773413
aF0.8
aF205.52
aF279.14
aF239.41
aF284.74
aa(lp203
F0.65
aF1.8731117824773413
aF0.85
aF240.36
aF280.3
aF248.92
aF285.97
aa(lp204
F0.65
aF1.8731117824773413
aF0.9
aF241.18
aF286.84
aF258.33
aF286.84
aa(lp205
F0.7000000000000001
aF2.397163120567376
aF0.1
aF37.16
aF198.3
aF24.87
aF299.33
aa(lp206
F0.7000000000000001
aF2.397163120567376
aF0.15000000000000002
aF36.81
aF247.82
aF49.91
aF326.59
aa(lp207
F0.7000000000000001
aF2.397163120567376
aF0.2
aF45.31
aF279.05
aF69.34
aF339.82
aa(lp208
F0.7000000000000001
aF2.397163120567376
aF0.25
aF88.46
aF325.98
aF71.2
aF350.41
aa(lp209
F0.7000000000000001
aF2.397163120567376
aF0.30000000000000004
aF115.63
aF347.89
aF94.71
aF358.58
aa(lp210
F0.7000000000000001
aF2.397163120567376
aF0.35
aF127.74
aF340.66
aF98.8
aF362.49
aa(lp211
F0.7000000000000001
aF2.397163120567376
aF0.4
aF140.79
aF339.53
aF181.52
aF369.06
aa(lp212
F0.7000000000000001
aF2.397163120567376
aF0.45000000000000007
aF194.42
aF352.94
aF153.53
aF371.42
aa(lp213
F0.7000000000000001
aF2.397163120567376
aF0.5
aF165.84
aF360.16
aF195.62
aF374.93
aa(lp214
F0.7000000000000001
aF2.397163120567376
aF0.55
aF185.87
aF358.92
aF197.15
aF377.71
aa(lp215
F0.7000000000000001
aF2.397163120567376
aF0.6
aF228.58
aF372.02
aF251.11
aF379.52
aa(lp216
F0.7000000000000001
aF2.397163120567376
aF0.65
aF241.38
aF370.98
aF226.36
aF382.32
aa(lp217
F0.7000000000000001
aF2.397163120567376
aF0.7000000000000001
aF280.53
aF368.54
aF265.63
aF383.85
aa(lp218
F0.7000000000000001
aF2.397163120567376
aF0.75
aF263.63
aF374.98
aF298.22
aF386.59
aa(lp219
F0.7000000000000001
aF2.397163120567376
aF0.8
aF323.16
aF381.21
aF311.72
aF388.94
aa(lp220
F0.7000000000000001
aF2.397163120567376
aF0.85
aF331.44
aF385.73
aF327.39
aF389.6
aa(lp221
F0.7000000000000001
aF2.397163120567376
aF0.9
aF352.15
aF387.15
aF348.28
aF391.07
aa(lp222
F0.75
aF3.0251046025104604
aF0.1
aF30.5
aF279.4
aF19.95
aF373.52
aa(lp223
F0.75
aF3.0251046025104604
aF0.15000000000000002
aF45.96
aF323.47
aF34.21
aF408.83
aa(lp224
F0.75
aF3.0251046025104604
aF0.2
aF97.94
aF365.47
aF51.73
aF424.62
aa(lp225
F0.75
aF3.0251046025104604
aF0.25
aF118.8
aF376.83
aF75.28
aF437.35
aa(lp226
F0.75
aF3.0251046025104604
aF0.30000000000000004
aF93.82
aF413.15
aF80.67
aF444.43
aa(lp227
F0.75
aF3.0251046025104604
aF0.35
aF131.6
aF423.25
aF126.74
aF450.3
aa(lp228
F0.75
aF3.0251046025104604
aF0.4
aF219.8
aF443.41
aF184.1
aF457.12
aa(lp229
F0.75
aF3.0251046025104604
aF0.45000000000000007
aF217.52
aF429.01
aF185.56
aF461.17
aa(lp230
F0.75
aF3.0251046025104604
aF0.5
aF265.78
aF441.74
aF228.33
aF464.62
aa(lp231
F0.75
aF3.0251046025104604
aF0.55
aF266.99
aF434.65
aF243.46
aF467.46
aa(lp232
F0.75
aF3.0251046025104604
aF0.6
aF268.46
aF460.8
aF250.2
aF470.18
aa(lp233
F0.75
aF3.0251046025104604
aF0.65
aF279.36
aF453.62
aF284.81
aF472.45
aa(lp234
F0.75
aF3.0251046025104604
aF0.7000000000000001
aF285.36
aF464.57
aF299.45
aF474.14
aa(lp235
F0.75
aF3.0251046025104604
aF0.75
aF333.53
aF452.23
aF357.51
aF475.81
aa(lp236
F0.75
aF3.0251046025104604
aF0.8
aF373.35
aF473.11
aF373.28
aF477.88
aa(lp237
F0.75
aF3.0251046025104604
aF0.85
aF374.7
aF470.11
aF393.82
aF479.69
aa(lp238
F0.75
aF3.0251046025104604
aF0.9
aF414.08
aF476.44
aF438.14
aF481.27
aa(lp239
F0.8
aF4.176470588235294
aF0.1
aF46.18
aF324.78
aF10.24
aF452.03
aa(lp240
F0.8
aF4.176470588235294
aF0.15000000000000002
aF104.67
aF396.3
aF25.64
aF494.63
aa(lp241
F0.8
aF4.176470588235294
aF0.2
aF135.65
aF412.82
aF52.88
aF516.04
aa(lp242
F0.8
aF4.176470588235294
aF0.25
aF150.11
aF478.49
aF106.69
aF531.46
aa(lp243
F0.8
aF4.176470588235294
aF0.30000000000000004
aF136.6
aF488.99
aF131.4
aF543.12
aa(lp244
F0.8
aF4.176470588235294
aF0.35
aF177.04
aF496.08
aF177.63
aF550.87
aa(lp245
F0.8
aF4.176470588235294
aF0.4
aF184.31
aF490.04
aF195.45
aF556.76
aa(lp246
F0.8
aF4.176470588235294
aF0.45000000000000007
aF231.25
aF518.33
aF232.07
aF563.17
aa(lp247
F0.8
aF4.176470588235294
aF0.5
aF306.8
aF561.78
aF273.32
aF567.37
aa(lp248
F0.8
aF4.176470588235294
aF0.55
aF285.71
aF541.96
aF274.05
aF570.38
aa(lp249
F0.8
aF4.176470588235294
aF0.6
aF374.2
aF551.92
aF373.56
aF574.88
aa(lp250
F0.8
aF4.176470588235294
aF0.65
aF324.68
aF578.49
aF440.03
aF578.49
aa(lp251
F0.8
aF4.176470588235294
aF0.7000000000000001
aF447.0
aF568.48
aF423.89
aF580.1
aa(lp252
F0.8
aF4.176470588235294
aF0.75
aF443.65
aF571.67
aF455.48
aF583.29
aa(lp253
F0.8
aF4.176470588235294
aF0.8
aF409.81
aF573.27
aF421.42
aF584.97
aa(lp254
F0.8
aF4.176470588235294
aF0.85
aF541.22
aF570.56
aF517.63
aF588.06
aa(lp255
F0.8
aF4.176470588235294
aF0.9
aF542.91
aF584.02
aF519.33
aF589.91
aa(lp256
F0.85
aF6.028776978417266
aF0.1
aF58.15
aF312.45
aF27.16
aF519.32
aa(lp257
F0.85
aF6.028776978417266
aF0.15000000000000002
aF75.09
aF443.74
aF23.88
aF567.67
aa(lp258
F0.85
aF6.028776978417266
aF0.2
aF149.48
aF505.56
aF36.5
aF594.16
aa(lp259
F0.85
aF6.028776978417266
aF0.25
aF166.18
aF484.82
aF56.74
aF613.04
aa(lp260
F0.85
aF6.028776978417266
aF0.30000000000000004
aF251.21
aF564.43
aF107.78
aF626.59
aa(lp261
F0.85
aF6.028776978417266
aF0.35
aF224.23
aF592.35
aF148.1
aF636.62
aa(lp262
F0.85
aF6.028776978417266
aF0.4
aF245.81
aF607.46
aF195.08
aF646.23
aa(lp263
F0.85
aF6.028776978417266
aF0.45000000000000007
aF295.19
aF614.36
aF222.62
aF653.34
aa(lp264
F0.85
aF6.028776978417266
aF0.5
aF356.99
aF639.97
aF323.54
aF659.7
aa(lp265
F0.85
aF6.028776978417266
aF0.55
aF340.12
aF638.44
aF347.05
aF664.89
aa(lp266
F0.85
aF6.028776978417266
aF0.6
aF443.11
aF630.36
aF349.42
aF670.38
aa(lp267
F0.85
aF6.028776978417266
aF0.65
aF479.49
aF661.57
aF459.22
aF675.0
aa(lp268
F0.85
aF6.028776978417266
aF0.7000000000000001
aF503.07
aF666.19
aF469.52
aF679.8
aa(lp269
F0.85
aF6.028776978417266
aF0.75
aF546.59
aF675.78
aF505.45
aF682.61
aa(lp270
F0.85
aF6.028776978417266
aF0.8
aF583.93
aF672.79
aF583.91
aF686.55
aa(lp271
F0.85
aF6.028776978417266
aF0.85
aF572.73
aF675.8
aF559.21
aF689.52
aa(lp272
F0.85
aF6.028776978417266
aF0.9
aF623.85
aF693.01
aF610.08
aF693.01
aa(lp273
F0.9
aF10.564705882352941
aF0.1
aF84.65
aF430.08
aF1.14
aF596.33
aa(lp274
F0.9
aF10.564705882352941
aF0.15000000000000002
aF79.36
aF522.28
aF20.71
aF652.2
aa(lp275
F0.9
aF10.564705882352941
aF0.2
aF110.36
aF555.75
aF28.56
aF684.89
aa(lp276
F0.9
aF10.564705882352941
aF0.25
aF149.04
aF593.59
aF100.02
aF706.23
aa(lp277
F0.9
aF10.564705882352941
aF0.30000000000000004
aF138.07
aF621.66
aF124.14
aF722.35
aa(lp278
F0.9
aF10.564705882352941
aF0.35
aF294.5
aF684.21
aF170.26
aF735.75
aa(lp279
F0.9
aF10.564705882352941
aF0.4
aF276.5
aF671.3
aF218.0
aF745.95
aa(lp280
F0.9
aF10.564705882352941
aF0.45000000000000007
aF340.61
aF695.79
aF288.24
aF756.1
aa(lp281
F0.9
aF10.564705882352941
aF0.5
aF459.0
aF718.75
aF314.12
aF764.39
aa(lp282
F0.9
aF10.564705882352941
aF0.55
aF408.43
aF746.66
aF362.92
aF769.57
aa(lp283
F0.9
aF10.564705882352941
aF0.6
aF443.54
aF745.7
aF443.38
aF776.9
aa(lp284
F0.9
aF10.564705882352941
aF0.65
aF555.82
aF743.7
aF485.71
aF782.78
aa(lp285
F0.9
aF10.564705882352941
aF0.7000000000000001
aF527.73
aF763.32
aF543.85
aF786.92
aa(lp286
F0.9
aF10.564705882352941
aF0.75
aF547.36
aF777.13
aF539.82
aF792.86
aa(lp287
F0.9
aF10.564705882352941
aF0.8
aF629.81
aF772.45
aF589.6
aF796.38
aa(lp288
F0.9
aF10.564705882352941
aF0.85
aF625.13
aF800.89
aF689.08
aF800.89
aa(lp289
F0.9
aF10.564705882352941
aF0.9
aF740.93
aF805.24
aF684.75
aF805.24
aa.